target datalayout = "e-m:e-p270:32:32-p271:32:32-p272:64:64-i64:64-i128:128-f80:128-n8:16:32:64-S128"
target triple = "x86_64-unknown-linux-gnu"

%"class.zmq::stream_engine_base_t" = type <{ %"class.zmq::io_object_t", %"struct.zmq::i_engine", %"struct.zmq::options_t", ptr, i64, ptr, ptr, i64, ptr, ptr, { i64, i64 }, { i64, i64 }, ptr, i8, i8, [6 x i8], %"struct.zmq::endpoint_uri_pair_t", i8, i8, i8, i8, [4 x i8], %"class.std::__cxx11::basic_string", i32, [4 x i8], ptr, i8, i8, [6 x i8], %"class.zmq::msg_t", i8, [7 x i8], ptr, ptr, i8, [7 x i8] }>
%"class.zmq::io_object_t" = type { %"struct.zmq::i_poll_events", ptr }
%"struct.zmq::i_poll_events" = type { ptr }
%"struct.zmq::i_engine" = type { ptr }
%"struct.zmq::options_t" = type { i32, i32, i64, i8, [256 x i8], i32, i32, i32, i32, i32, i32, i32, i32, i8, %"struct.zmq::atomic_value_t", i32, i32, i32, i32, i32, i32, i64, i32, i32, i8, i32, i8, i8, i8, i8, i8, %"class.std::__cxx11::basic_string", %"class.std::__cxx11::basic_string", %"class.std::__cxx11::basic_string", i32, i32, i32, i32, %"class.std::vector", %"class.std::set", %"class.std::set", %"class.std::set.6", i32, i32, %"class.std::__cxx11::basic_string", %"class.std::__cxx11::basic_string", %"class.std::__cxx11::basic_string", [32 x i8], [32 x i8], [32 x i8], %"class.std::__cxx11::basic_string", %"class.std::__cxx11::basic_string", i32, i32, i8, i32, i8, i32, i8, i16, i32, i32, i32, %"class.std::__cxx11::basic_string", i8, i8, i8, i32, i32, i8, i32, %"class.std::map", i32, %"class.std::__cxx11::basic_string", %"class.std::__cxx11::basic_string", %"class.std::__cxx11::basic_string", %"class.std::__cxx11::basic_string", i8, %"class.std::vector.21", i8, %"class.std::vector.21", i8, %"class.std::vector.21", i8, i32, i8, i32, i32, i32, i32, i32, i8, i32 }
%"struct.zmq::atomic_value_t" = type { %"struct.std::atomic" }
%"struct.std::atomic" = type { %"struct.std::__atomic_base" }
%"struct.std::__atomic_base" = type { i32 }
%"class.std::vector" = type { %"struct.std::_Vector_base" }
%"struct.std::_Vector_base" = type { %"struct.std::_Vector_base<zmq::tcp_address_mask_t, std::allocator<zmq::tcp_address_mask_t>>::_Vector_impl" }
%"struct.std::_Vector_base<zmq::tcp_address_mask_t, std::allocator<zmq::tcp_address_mask_t>>::_Vector_impl" = type { %"struct.std::_Vector_base<zmq::tcp_address_mask_t, std::allocator<zmq::tcp_address_mask_t>>::_Vector_impl_data" }
%"struct.std::_Vector_base<zmq::tcp_address_mask_t, std::allocator<zmq::tcp_address_mask_t>>::_Vector_impl_data" = type { ptr, ptr, ptr }
%"class.std::set" = type { %"class.std::_Rb_tree" }
%"class.std::_Rb_tree" = type { %"struct.std::_Rb_tree<unsigned int, unsigned int, std::_Identity<unsigned int>, std::less<unsigned int>>::_Rb_tree_impl" }
%"struct.std::_Rb_tree<unsigned int, unsigned int, std::_Identity<unsigned int>, std::less<unsigned int>>::_Rb_tree_impl" = type { %"struct.std::_Rb_tree_key_compare", %"struct.std::_Rb_tree_header" }
%"struct.std::_Rb_tree_key_compare" = type { %"struct.std::less" }
%"struct.std::less" = type { i8 }
%"struct.std::_Rb_tree_header" = type { %"struct.std::_Rb_tree_node_base", i64 }
%"struct.std::_Rb_tree_node_base" = type { i32, ptr, ptr, ptr }
%"class.std::set.6" = type { %"class.std::_Rb_tree.7" }
%"class.std::_Rb_tree.7" = type { %"struct.std::_Rb_tree<int, int, std::_Identity<int>, std::less<int>>::_Rb_tree_impl" }
%"struct.std::_Rb_tree<int, int, std::_Identity<int>, std::less<int>>::_Rb_tree_impl" = type { %"struct.std::_Rb_tree_key_compare.11", %"struct.std::_Rb_tree_header" }
%"struct.std::_Rb_tree_key_compare.11" = type { %"struct.std::less.12" }
%"struct.std::less.12" = type { i8 }
%"class.std::map" = type { %"class.std::_Rb_tree.14" }
%"class.std::_Rb_tree.14" = type { %"struct.std::_Rb_tree<std::__cxx11::basic_string<char>, std::pair<const std::__cxx11::basic_string<char>, std::__cxx11::basic_string<char>>, std::_Select1st<std::pair<const std::__cxx11::basic_string<char>, std::__cxx11::basic_string<char>>>, std::less<std::__cxx11::basic_string<char>>>::_Rb_tree_impl" }
%"struct.std::_Rb_tree<std::__cxx11::basic_string<char>, std::pair<const std::__cxx11::basic_string<char>, std::__cxx11::basic_string<char>>, std::_Select1st<std::pair<const std::__cxx11::basic_string<char>, std::__cxx11::basic_string<char>>>, std::less<std::__cxx11::basic_string<char>>>::_Rb_tree_impl" = type { %"struct.std::_Rb_tree_key_compare.18", %"struct.std::_Rb_tree_header" }
%"struct.std::_Rb_tree_key_compare.18" = type { %"struct.std::less.19" }
%"struct.std::less.19" = type { i8 }
%"class.std::vector.21" = type { %"struct.std::_Vector_base.22" }
%"struct.std::_Vector_base.22" = type { %"struct.std::_Vector_base<unsigned char, std::allocator<unsigned char>>::_Vector_impl" }
%"struct.std::_Vector_base<unsigned char, std::allocator<unsigned char>>::_Vector_impl" = type { %"struct.std::_Vector_base<unsigned char, std::allocator<unsigned char>>::_Vector_impl_data" }
%"struct.std::_Vector_base<unsigned char, std::allocator<unsigned char>>::_Vector_impl_data" = type { ptr, ptr, ptr }
%"struct.zmq::endpoint_uri_pair_t" = type <{ %"class.std::__cxx11::basic_string", %"class.std::__cxx11::basic_string", i32, [4 x i8] }>
%"class.std::__cxx11::basic_string" = type { %"struct.std::__cxx11::basic_string<char>::_Alloc_hider", i64, %union.anon }
%"struct.std::__cxx11::basic_string<char>::_Alloc_hider" = type { ptr }
%union.anon = type { i64, [8 x i8] }
%"class.zmq::msg_t" = type { %union.anon.26 }
%union.anon.26 = type { %struct.anon }
%struct.anon = type { ptr, [34 x i8], i8, i8, i32, %"union.zmq::msg_t::group_t" }
%"union.zmq::msg_t::group_t" = type { %struct.anon.28 }
%struct.anon.28 = type { i8, ptr }

@stderr = external global ptr, align 8
@.str.1 = private unnamed_addr constant [118 x i8] c"generated/home/dtcxzyw/WorkSpace/Projects/compilers/llvm-opt-benchmark/bench/libzmq/libzmq/src/stream_engine_base.cpp\00", align 1
@.str.2 = private unnamed_addr constant [30 x i8] c"Assertion failed: %s (%s:%d)\0A\00", align 1
@.str.20 = private unnamed_addr constant [9 x i8] c"_session\00", align 1

; Function Attrs: mustprogress uwtable
define void @_ZN3zmq20stream_engine_base_t5errorENS_8i_engine14error_reason_tE(ptr noundef nonnull align 8 dereferenceable(1689) %this, i32 noundef %reason_) unnamed_addr #0 align 2 {
entry:
  %this.addr = alloca ptr, align 8
  %reason_.addr = alloca i32, align 4
  %disconnect_notification = alloca %"class.zmq::msg_t", align 8
  %err = alloca i32, align 4
  store ptr %this, ptr %this.addr, align 8
  store i32 %reason_, ptr %reason_.addr, align 4
  %this1 = load ptr, ptr %this.addr, align 8
  br label %do.body

do.body:                                          ; preds = %entry
  %_session = getelementptr inbounds %"class.zmq::stream_engine_base_t", ptr %this1, i32 0, i32 32
  %0 = load ptr, ptr %_session, align 8
  %tobool = icmp ne ptr %0, null
  %lnot = xor i1 %tobool, true
  br i1 %lnot, label %if.then, label %if.end

if.then:                                          ; preds = %do.body
  %1 = load ptr, ptr @stderr, align 8
  %call = call i32 (ptr, ptr, ...) @fprintf(ptr noundef %1, ptr noundef @.str.2, ptr noundef @.str.20, ptr noundef @.str.1, i32 noundef 669)
  %2 = load ptr, ptr @stderr, align 8
  %call2 = call i32 @fflush(ptr noundef %2)
  call void @_ZN3zmq9zmq_abortEPKc(ptr noundef @.str.20)
  br label %if.end

if.end:                                           ; preds = %if.then, %do.body
  br label %do.end

do.end:                                           ; preds = %if.end
  %_options = getelementptr inbounds %"class.zmq::stream_engine_base_t", ptr %this1, i32 0, i32 2
  %router_notify = getelementptr inbounds %"struct.zmq::options_t", ptr %_options, i32 0, i32 70
  %3 = load i32, ptr %router_notify, align 8
  %and = and i32 %3, 2
  %tobool3 = icmp ne i32 %and, 0
  br i1 %tobool3, label %land.lhs.true, label %if.end10

land.lhs.true:                                    ; preds = %do.end
  %_handshaking = getelementptr inbounds %"class.zmq::stream_engine_base_t", ptr %this1, i32 0, i32 27
  %4 = load i8, ptr %_handshaking, align 1
  %tobool4 = trunc i8 %4 to i1
  br i1 %tobool4, label %if.end10, label %if.then5

if.then5:                                         ; preds = %land.lhs.true
  %_session6 = getelementptr inbounds %"class.zmq::stream_engine_base_t", ptr %this1, i32 0, i32 32
  %5 = load ptr, ptr %_session6, align 8
  call void @_ZN3zmq14session_base_t8rollbackEv(ptr noundef nonnull align 8 dereferenceable(1624) %5)
  %call7 = call noundef i32 @_ZN3zmq5msg_t4initEv(ptr noundef nonnull align 8 dereferenceable(64) %disconnect_notification)
  %_session8 = getelementptr inbounds %"class.zmq::stream_engine_base_t", ptr %this1, i32 0, i32 32
  %6 = load ptr, ptr %_session8, align 8
  %vtable = load ptr, ptr %6, align 8
  %vfn = getelementptr inbounds ptr, ptr %vtable, i64 29
  %7 = load ptr, ptr %vfn, align 8
  %call9 = call noundef i32 %7(ptr noundef nonnull align 8 dereferenceable(1624) %6, ptr noundef %disconnect_notification)
  br label %if.end10

if.end10:                                         ; preds = %if.then5, %land.lhs.true, %do.end
  %8 = load i32, ptr %reason_.addr, align 4
  %cmp = icmp ne i32 %8, 0
  br i1 %cmp, label %land.lhs.true11, label %if.end29

land.lhs.true11:                                  ; preds = %if.end10
  %_mechanism = getelementptr inbounds %"class.zmq::stream_engine_base_t", ptr %this1, i32 0, i32 9
  %9 = load ptr, ptr %_mechanism, align 8
  %cmp12 = icmp eq ptr %9, null
  br i1 %cmp12, label %if.then18, label %lor.lhs.false

lor.lhs.false:                                    ; preds = %land.lhs.true11
  %_mechanism13 = getelementptr inbounds %"class.zmq::stream_engine_base_t", ptr %this1, i32 0, i32 9
  %10 = load ptr, ptr %_mechanism13, align 8
  %vtable14 = load ptr, ptr %10, align 8
  %vfn15 = getelementptr inbounds ptr, ptr %vtable14, i64 7
  %11 = load ptr, ptr %vfn15, align 8
  %call16 = call noundef i32 %11(ptr noundef nonnull align 8 dereferenceable(1488) %10)
  %cmp17 = icmp eq i32 %call16, 0
  br i1 %cmp17, label %if.then18, label %if.end29

if.then18:                                        ; preds = %lor.lhs.false, %land.lhs.true11
  %call19 = call ptr @__errno_location() #16
  %12 = load i32, ptr %call19, align 4
  store i32 %12, ptr %err, align 4
  %_socket = getelementptr inbounds %"class.zmq::stream_engine_base_t", ptr %this1, i32 0, i32 33
  %13 = load ptr, ptr %_socket, align 8
  %_endpoint_uri_pair = getelementptr inbounds %"class.zmq::stream_engine_base_t", ptr %this1, i32 0, i32 16
  %14 = load i32, ptr %err, align 4
  call void @_ZN3zmq13socket_base_t32event_handshake_failed_no_detailERKNS_19endpoint_uri_pair_tEi(ptr noundef nonnull align 8 dereferenceable(1825) %13, ptr noundef nonnull align 8 dereferenceable(68) %_endpoint_uri_pair, i32 noundef %14)
  %15 = load i32, ptr %reason_.addr, align 4
  %cmp20 = icmp eq i32 %15, 1
  br i1 %cmp20, label %land.lhs.true23, label %lor.lhs.false21

lor.lhs.false21:                                  ; preds = %if.then18
  %16 = load i32, ptr %reason_.addr, align 4
  %cmp22 = icmp eq i32 %16, 2
  br i1 %cmp22, label %land.lhs.true23, label %if.end28

land.lhs.true23:                                  ; preds = %lor.lhs.false21, %if.then18
  %_options24 = getelementptr inbounds %"class.zmq::stream_engine_base_t", ptr %this1, i32 0, i32 2
  %reconnect_stop = getelementptr inbounds %"struct.zmq::options_t", ptr %_options24, i32 0, i32 17
  %17 = load i32, ptr %reconnect_stop, align 4
  %and25 = and i32 %17, 2
  %tobool26 = icmp ne i32 %and25, 0
  br i1 %tobool26, label %if.then27, label %if.end28

if.then27:                                        ; preds = %land.lhs.true23
  store i32 0, ptr %reason_.addr, align 4
  br label %if.end28

if.end28:                                         ; preds = %if.then27, %land.lhs.true23, %lor.lhs.false21
  br label %if.end29

if.end29:                                         ; preds = %if.end28, %lor.lhs.false, %if.end10
  %_socket30 = getelementptr inbounds %"class.zmq::stream_engine_base_t", ptr %this1, i32 0, i32 33
  %18 = load ptr, ptr %_socket30, align 8
  %_endpoint_uri_pair31 = getelementptr inbounds %"class.zmq::stream_engine_base_t", ptr %this1, i32 0, i32 16
  %_s = getelementptr inbounds %"class.zmq::stream_engine_base_t", ptr %this1, i32 0, i32 23
  %19 = load i32, ptr %_s, align 8
  call void @_ZN3zmq13socket_base_t18event_disconnectedERKNS_19endpoint_uri_pair_tEi(ptr noundef nonnull align 8 dereferenceable(1825) %18, ptr noundef nonnull align 8 dereferenceable(68) %_endpoint_uri_pair31, i32 noundef %19)
  %_session32 = getelementptr inbounds %"class.zmq::stream_engine_base_t", ptr %this1, i32 0, i32 32
  %20 = load ptr, ptr %_session32, align 8
  call void @_ZN3zmq14session_base_t5flushEv(ptr noundef nonnull align 8 dereferenceable(1624) %20)
  %_session33 = getelementptr inbounds %"class.zmq::stream_engine_base_t", ptr %this1, i32 0, i32 32
  %21 = load ptr, ptr %_session33, align 8
  %_handshaking34 = getelementptr inbounds %"class.zmq::stream_engine_base_t", ptr %this1, i32 0, i32 27
  %22 = load i8, ptr %_handshaking34, align 1
  %tobool35 = trunc i8 %22 to i1
  br i1 %tobool35, label %land.end, label %land.rhs

land.rhs:                                         ; preds = %if.end29
  %_mechanism36 = getelementptr inbounds %"class.zmq::stream_engine_base_t", ptr %this1, i32 0, i32 9
  %23 = load ptr, ptr %_mechanism36, align 8
  %cmp37 = icmp eq ptr %23, null
  br i1 %cmp37, label %lor.end, label %lor.rhs

lor.rhs:                                          ; preds = %land.rhs
  %_mechanism38 = getelementptr inbounds %"class.zmq::stream_engine_base_t", ptr %this1, i32 0, i32 9
  %24 = load ptr, ptr %_mechanism38, align 8
  %vtable39 = load ptr, ptr %24, align 8
  %vfn40 = getelementptr inbounds ptr, ptr %vtable39, i64 7
  %25 = load ptr, ptr %vfn40, align 8
  %call41 = call noundef i32 %25(ptr noundef nonnull align 8 dereferenceable(1488) %24)
  %cmp42 = icmp ne i32 %call41, 0
  br label %lor.end

lor.end:                                          ; preds = %lor.rhs, %land.rhs
  %26 = phi i1 [ true, %land.rhs ], [ %cmp42, %lor.rhs ]
  br label %land.end

land.end:                                         ; preds = %lor.end, %if.end29
  %27 = phi i1 [ false, %if.end29 ], [ %26, %lor.end ]
  %28 = load i32, ptr %reason_.addr, align 4
  call void @_ZN3zmq14session_base_t12engine_errorEbNS_8i_engine14error_reason_tE(ptr noundef nonnull align 8 dereferenceable(1624) %21, i1 noundef zeroext %27, i32 noundef %28)
  call void @_ZN3zmq20stream_engine_base_t6unplugEv(ptr noundef nonnull align 8 dereferenceable(1689) %this1)
  %isnull = icmp eq ptr %this1, null
  br i1 %isnull, label %delete.end, label %delete.notnull

delete.notnull:                                   ; preds = %land.end
  %vtable43 = load ptr, ptr %this1, align 8
  %vfn44 = getelementptr inbounds ptr, ptr %vtable43, i64 1
  %29 = load ptr, ptr %vfn44, align 8
  call void %29(ptr noundef nonnull align 8 dereferenceable(1689) %this1) #15
  br label %delete.end

delete.end:                                       ; preds = %delete.notnull, %land.end
  ret void
}