; Function Attrs: mustprogress uwtable
define void @_ZN3zmq20stream_engine_base_t5errorENS_8i_engine14error_reason_tE(ptr noundef nonnull align 8 dereferenceable(1689) %this, i32 noundef %reason_) unnamed_addr #0 align 2 {
entry:
  %disconnect_notification = alloca %"class.zmq::msg_t", align 8
  %_session = getelementptr inbounds i8, ptr %this, i64 1672
  %0 = load ptr, ptr %_session, align 8
  %tobool.not = icmp eq ptr %0, null
  br i1 %tobool.not, label %if.then, label %do.end

if.then:                                          ; preds = %entry
  %1 = load ptr, ptr @stderr, align 8
  %call = tail call i32 (ptr, ptr, ...) @fprintf(ptr noundef %1, ptr noundef nonnull @.str.2, ptr noundef nonnull @.str.20, ptr noundef nonnull @.str.1, i32 noundef 669) #21
  %2 = load ptr, ptr @stderr, align 8
  %call2 = tail call i32 @fflush(ptr noundef %2)
  tail call void @_ZN3zmq9zmq_abortEPKc(ptr noundef nonnull @.str.20)
  br label %do.end

do.end:                                           ; preds = %entry, %if.then
  %router_notify = getelementptr inbounds i8, ptr %this, i64 1032
  %3 = load i32, ptr %router_notify, align 8
  %and = and i32 %3, 2
  %tobool3.not = icmp eq i32 %and, 0
  br i1 %tobool3.not, label %if.end10, label %land.lhs.true

land.lhs.true:                                    ; preds = %do.end
  %_handshaking = getelementptr inbounds i8, ptr %this, i64 1593
  %4 = load i8, ptr %_handshaking, align 1
  %5 = and i8 %4, 1
  %tobool4.not = icmp eq i8 %5, 0
  br i1 %tobool4.not, label %if.then5, label %if.end10

if.then5:                                         ; preds = %land.lhs.true
  %6 = load ptr, ptr %_session, align 8
  tail call void @_ZN3zmq14session_base_t8rollbackEv(ptr noundef nonnull align 8 dereferenceable(1624) %6)
  %call7 = call noundef i32 @_ZN3zmq5msg_t4initEv(ptr noundef nonnull align 8 dereferenceable(64) %disconnect_notification)
  %7 = load ptr, ptr %_session, align 8
  %vtable = load ptr, ptr %7, align 8
  %vfn = getelementptr inbounds i8, ptr %vtable, i64 232
  %8 = load ptr, ptr %vfn, align 8
  %call9 = call noundef i32 %8(ptr noundef nonnull align 8 dereferenceable(1624) %7, ptr noundef nonnull %disconnect_notification)
  br label %if.end10

if.end10:                                         ; preds = %if.then5, %land.lhs.true, %do.end
  %cmp.not = icmp eq i32 %reason_, 0
  br i1 %cmp.not, label %if.end29, label %land.lhs.true11

land.lhs.true11:                                  ; preds = %if.end10
  %_mechanism = getelementptr inbounds i8, ptr %this, i64 1408
  %9 = load ptr, ptr %_mechanism, align 8
  %cmp12 = icmp eq ptr %9, null
  br i1 %cmp12, label %if.then18, label %lor.lhs.false

lor.lhs.false:                                    ; preds = %land.lhs.true11
  %vtable14 = load ptr, ptr %9, align 8
  %vfn15 = getelementptr inbounds i8, ptr %vtable14, i64 56
  %10 = load ptr, ptr %vfn15, align 8
  %call16 = call noundef i32 %10(ptr noundef nonnull align 8 dereferenceable(1488) %9)
  %cmp17 = icmp eq i32 %call16, 0
  br i1 %cmp17, label %if.then18, label %if.end29

if.then18:                                        ; preds = %lor.lhs.false, %land.lhs.true11
  %call19 = tail call ptr @__errno_location() #20
  %11 = load i32, ptr %call19, align 4
  %_socket = getelementptr inbounds i8, ptr %this, i64 1680
  %12 = load ptr, ptr %_socket, align 8
  %_endpoint_uri_pair = getelementptr inbounds i8, ptr %this, i64 1464
  call void @_ZN3zmq13socket_base_t32event_handshake_failed_no_detailERKNS_19endpoint_uri_pair_tEi(ptr noundef nonnull align 8 dereferenceable(1825) %12, ptr noundef nonnull align 8 dereferenceable(68) %_endpoint_uri_pair, i32 noundef %11)
  %or.cond = icmp ult i32 %reason_, 3
  br i1 %or.cond, label %land.lhs.true23, label %if.end29

land.lhs.true23:                                  ; preds = %if.then18
  %reconnect_stop = getelementptr inbounds i8, ptr %this, i64 348
  %13 = load i32, ptr %reconnect_stop, align 4
  %and25 = and i32 %13, 2
  %tobool26.not = icmp eq i32 %and25, 0
  %spec.select = select i1 %tobool26.not, i32 %reason_, i32 0
  br label %if.end29

if.end29:                                         ; preds = %land.lhs.true23, %if.then18, %lor.lhs.false, %if.end10
  %reason_.addr.0 = phi i32 [ %reason_, %if.then18 ], [ %reason_, %lor.lhs.false ], [ 0, %if.end10 ], [ %spec.select, %land.lhs.true23 ]
  %_socket30 = getelementptr inbounds i8, ptr %this, i64 1680
  %14 = load ptr, ptr %_socket30, align 8
  %_endpoint_uri_pair31 = getelementptr inbounds i8, ptr %this, i64 1464
  %_s = getelementptr inbounds i8, ptr %this, i64 1576
  %15 = load i32, ptr %_s, align 8
  call void @_ZN3zmq13socket_base_t18event_disconnectedERKNS_19endpoint_uri_pair_tEi(ptr noundef nonnull align 8 dereferenceable(1825) %14, ptr noundef nonnull align 8 dereferenceable(68) %_endpoint_uri_pair31, i32 noundef %15)
  %16 = load ptr, ptr %_session, align 8
  call void @_ZN3zmq14session_base_t5flushEv(ptr noundef nonnull align 8 dereferenceable(1624) %16)
  %17 = load ptr, ptr %_session, align 8
  %_handshaking34 = getelementptr inbounds i8, ptr %this, i64 1593
  %18 = load i8, ptr %_handshaking34, align 1
  %19 = and i8 %18, 1
  %tobool35.not = icmp eq i8 %19, 0
  br i1 %tobool35.not, label %land.rhs, label %land.end

land.rhs:                                         ; preds = %if.end29
  %_mechanism36 = getelementptr inbounds i8, ptr %this, i64 1408
  %20 = load ptr, ptr %_mechanism36, align 8
  %cmp37 = icmp eq ptr %20, null
  br i1 %cmp37, label %land.end, label %lor.rhs

lor.rhs:                                          ; preds = %land.rhs
  %vtable39 = load ptr, ptr %20, align 8
  %vfn40 = getelementptr inbounds i8, ptr %vtable39, i64 56
  %21 = load ptr, ptr %vfn40, align 8
  %call41 = call noundef i32 %21(ptr noundef nonnull align 8 dereferenceable(1488) %20)
  %cmp42 = icmp ne i32 %call41, 0
  br label %land.end

land.end:                                         ; preds = %land.rhs, %lor.rhs, %if.end29
  %22 = phi i1 [ false, %if.end29 ], [ true, %land.rhs ], [ %cmp42, %lor.rhs ]
  call void @_ZN3zmq14session_base_t12engine_errorEbNS_8i_engine14error_reason_tE(ptr noundef nonnull align 8 dereferenceable(1624) %17, i1 noundef zeroext %22, i32 noundef %reason_.addr.0)
  call void @_ZN3zmq20stream_engine_base_t6unplugEv(ptr noundef nonnull align 8 dereferenceable(1689) %this)
  %vtable43 = load ptr, ptr %this, align 8
  %vfn44 = getelementptr inbounds i8, ptr %vtable43, i64 8
  %23 = load ptr, ptr %vfn44, align 8
  call void %23(ptr noundef nonnull align 8 dereferenceable(1689) %this) #19
  ret void
}